; Function Attrs: mustprogress uwtable
define dso_local void @_ZNK14btQuantizedBvh17walkStacklessTreeEP21btNodeOverlapCallbackRK9btVector3S4_(ptr noundef nonnull readonly align 8 captures(none) dereferenceable(244) %0, ptr noundef %1, ptr noundef nonnull readonly align 4 captures(none) dereferenceable(16) %2, ptr noundef nonnull readonly align 4 captures(none) dereferenceable(16) %3) local_unnamed_addr #2 align 2 {
  %5 = getelementptr inbounds nuw i8, ptr %0, i64 60
  %6 = load i32, ptr %5, align 4, !tbaa !49
  %7 = icmp sgt i32 %6, 0
  br i1 %7, label %.lr.ph, label %._crit_edge

.lr.ph:                                           ; preds = %4
  %8 = getelementptr inbounds nuw i8, ptr %0, i64 120
  %9 = load ptr, ptr %8, align 8, !tbaa !26
  %10 = getelementptr inbounds nuw i8, ptr %2, i64 8
  %11 = getelementptr inbounds nuw i8, ptr %3, i64 8
  %12 = getelementptr inbounds nuw i8, ptr %2, i64 4
  %13 = getelementptr inbounds nuw i8, ptr %3, i64 4
  br label %14

14:                                               ; preds = %.lr.ph, %72
  %.027 = phi ptr [ %9, %.lr.ph ], [ %.1, %72 ]
  %.02226 = phi i32 [ 0, %.lr.ph ], [ %.123, %72 ]
  %15 = getelementptr inbounds nuw i8, ptr %.027, i64 16
  %16 = load float, ptr %2, align 4, !tbaa !39
  %17 = load float, ptr %15, align 4, !tbaa !39
  %18 = fcmp ogt float %16, %17
  br i1 %18, label %24, label %19

19:                                               ; preds = %14
  %20 = load float, ptr %3, align 4, !tbaa !39
  %21 = load float, ptr %.027, align 4, !tbaa !39
  %22 = fcmp olt float %20, %21
  br i1 %22, label %24, label %23

23:                                               ; preds = %19
  br label %24

24:                                               ; preds = %23, %19, %14
  %25 = phi i1 [ true, %23 ], [ false, %19 ], [ false, %14 ]
  %26 = load float, ptr %10, align 4, !tbaa !39
  %27 = getelementptr inbounds nuw i8, ptr %.027, i64 24
  %28 = load float, ptr %27, align 4, !tbaa !39
  %29 = fcmp ogt float %26, %28
  br i1 %29, label %36, label %30

30:                                               ; preds = %24
  %31 = load float, ptr %11, align 4, !tbaa !39
  %32 = getelementptr inbounds nuw i8, ptr %.027, i64 8
  %33 = load float, ptr %32, align 4, !tbaa !39
  %34 = fcmp olt float %31, %33
  br i1 %34, label %36, label %35

35:                                               ; preds = %30
  br label %36

36:                                               ; preds = %35, %30, %24
  %37 = phi i1 [ %25, %35 ], [ false, %30 ], [ false, %24 ]
  %38 = load float, ptr %12, align 4, !tbaa !39
  %39 = getelementptr inbounds nuw i8, ptr %.027, i64 20
  %40 = load float, ptr %39, align 4, !tbaa !39
  %41 = fcmp ogt float %38, %40
  br i1 %41, label %_Z20TestAabbAgainstAabb2RK9btVector3S1_S1_S1_.exit.thread, label %42

42:                                               ; preds = %36
  %43 = load float, ptr %13, align 4, !tbaa !39
  %44 = getelementptr inbounds nuw i8, ptr %.027, i64 4
  %45 = load float, ptr %44, align 4, !tbaa !39
  %46 = fcmp olt float %43, %45
  br i1 %46, label %_Z20TestAabbAgainstAabb2RK9btVector3S1_S1_S1_.exit.thread, label %_Z20TestAabbAgainstAabb2RK9btVector3S1_S1_S1_.exit

_Z20TestAabbAgainstAabb2RK9btVector3S1_S1_S1_.exit.thread: ; preds = %42, %36
  %47 = getelementptr inbounds nuw i8, ptr %.027, i64 32
  %48 = load i32, ptr %47, align 4, !tbaa !62
  %49 = icmp eq i32 %48, -1
  br label %60

_Z20TestAabbAgainstAabb2RK9btVector3S1_S1_S1_.exit: ; preds = %42
  %50 = getelementptr inbounds nuw i8, ptr %.027, i64 32
  %51 = load i32, ptr %50, align 4, !tbaa !62
  %52 = icmp eq i32 %51, -1
  %or.cond = and i1 %37, %52
  br i1 %or.cond, label %.thread, label %60

.thread:                                          ; preds = %_Z20TestAabbAgainstAabb2RK9btVector3S1_S1_S1_.exit
  %53 = getelementptr inbounds nuw i8, ptr %.027, i64 36
  %54 = load i32, ptr %53, align 4, !tbaa !70
  %55 = getelementptr inbounds nuw i8, ptr %.027, i64 40
  %56 = load i32, ptr %55, align 4, !tbaa !71
  %57 = load ptr, ptr %1, align 8, !tbaa !4
  %58 = getelementptr inbounds nuw i8, ptr %57, i64 16
  %59 = load ptr, ptr %58, align 8
  tail call void %59(ptr noundef nonnull align 8 dereferenceable(8) %1, i32 noundef %54, i32 noundef %56)
  br label %64

60:                                               ; preds = %_Z20TestAabbAgainstAabb2RK9btVector3S1_S1_S1_.exit.thread, %_Z20TestAabbAgainstAabb2RK9btVector3S1_S1_S1_.exit
  %61 = phi i1 [ %49, %_Z20TestAabbAgainstAabb2RK9btVector3S1_S1_S1_.exit.thread ], [ %52, %_Z20TestAabbAgainstAabb2RK9btVector3S1_S1_S1_.exit ]
  %62 = phi ptr [ %47, %_Z20TestAabbAgainstAabb2RK9btVector3S1_S1_S1_.exit.thread ], [ %50, %_Z20TestAabbAgainstAabb2RK9btVector3S1_S1_S1_.exit ]
  %63 = phi i1 [ false, %_Z20TestAabbAgainstAabb2RK9btVector3S1_S1_S1_.exit.thread ], [ %37, %_Z20TestAabbAgainstAabb2RK9btVector3S1_S1_S1_.exit ]
  %brmerge = or i1 %61, %63
  br i1 %brmerge, label %64, label %67

64:                                               ; preds = %.thread, %60
  %65 = getelementptr inbounds nuw i8, ptr %.027, i64 64
  %66 = add nsw i32 %.02226, 1
  br label %72

67:                                               ; preds = %60
  %68 = load i32, ptr %62, align 4, !tbaa !62
  %69 = sext i32 %68 to i64
  %70 = getelementptr inbounds %struct.btOptimizedBvhNode, ptr %.027, i64 %69
  %71 = add nsw i32 %68, %.02226
  br label %72

72:                                               ; preds = %67, %64
  %.123 = phi i32 [ %66, %64 ], [ %71, %67 ]
  %.1 = phi ptr [ %65, %64 ], [ %70, %67 ]
  %73 = load i32, ptr %5, align 4, !tbaa !49
  %74 = icmp slt i32 %.123, %73
  br i1 %74, label %14, label %._crit_edge, !llvm.loop !72

._crit_edge:                                      ; preds = %72, %4
  ret void
}